target datalayout = "e-m:e-p270:32:32-p271:32:32-p272:64:64-i64:64-i128:128-f80:128-n8:16:32:64-S128"
target triple = "x86_64-pc-linux-gnu"

%class.symbol = type { ptr }
%class.ast_manager = type { %class.reslimit, %class.small_object_allocator, %class.family_manager, %class.parray_manager, %class.dependency_manager, %class.parray_manager.23, %class.ptr_vector.26, i32, i8, %class.ast_table, %class.obj_map, %class.id_gen, %class.id_gen, ptr, ptr, ptr, ptr, ptr, i32, i8, [3 x i8], %class.u_map, ptr, i8, i8, ptr, %class.symbol, %class.obj_map.34, ptr }
%class.reslimit = type { %"struct.std::atomic", i8, i64, i64, %class.svector, %class.ptr_vector }
%"struct.std::atomic" = type { %"struct.std::__atomic_base" }
%"struct.std::__atomic_base" = type { i32 }
%class.svector = type { %class.vector }
%class.vector = type { ptr }
%class.ptr_vector = type { %class.vector.13 }
%class.vector.13 = type { ptr }
%class.small_object_allocator = type { [32 x ptr], [32 x ptr], i64 }
%class.family_manager = type { i32, %class.symbol_table, %class.svector.17 }
%class.symbol_table = type { %class.core_hashtable, %class.vector.14, %class.svector.15 }
%class.core_hashtable = type <{ ptr, i32, i32, i32, [4 x i8] }>
%class.vector.14 = type { ptr }
%class.svector.15 = type { %class.vector.16 }
%class.vector.16 = type { ptr }
%class.svector.17 = type { %class.vector.18 }
%class.vector.18 = type { ptr }
%class.parray_manager = type { ptr, ptr, %class.ptr_vector.19, %class.ptr_vector.19 }
%class.ptr_vector.19 = type { %class.vector.20 }
%class.vector.20 = type { ptr }
%class.dependency_manager = type { ptr, ptr, %class.ptr_vector.21 }
%class.ptr_vector.21 = type { %class.vector.22 }
%class.vector.22 = type { ptr }
%class.parray_manager.23 = type { ptr, ptr, %class.ptr_vector.24, %class.ptr_vector.24 }
%class.ptr_vector.24 = type { %class.vector.25 }
%class.vector.25 = type { ptr }
%class.ptr_vector.26 = type { %class.vector.27 }
%class.vector.27 = type { ptr }
%class.ast_table = type { %class.chashtable }
%class.chashtable = type { ptr, i32, i32, i32, i32, i32, i32, i32, ptr, ptr, ptr }
%class.obj_map = type { %class.core_hashtable.28 }
%class.core_hashtable.28 = type <{ ptr, i32, i32, i32, [4 x i8] }>
%class.id_gen = type { i32, %class.svector.30 }
%class.svector.30 = type { %class.vector.31 }
%class.vector.31 = type { ptr }
%class.u_map = type { %class.map }
%class.map = type { %class.table2map }
%class.table2map = type { %class.core_hashtable.32 }
%class.core_hashtable.32 = type <{ ptr, i32, i32, i32, [4 x i8] }>
%class.obj_map.34 = type { %class.core_hashtable.35 }
%class.core_hashtable.35 = type <{ ptr, i32, i32, i32, [4 x i8] }>

; Function Attrs: mustprogress nounwind uwtable
define linkonce_odr hidden noundef i32 @_ZNK6vectorIP11decl_pluginLb0EjE4sizeEv(ptr noundef nonnull align 8 dereferenceable(8) %0) #4 comdat align 2 {
  %2 = alloca i32, align 4
  %3 = alloca ptr, align 8
  store ptr %0, ptr %3, align 8, !tbaa !396
  %4 = load ptr, ptr %3, align 8
  %5 = getelementptr inbounds nuw %class.vector.27, ptr %4, i32 0, i32 0
  %6 = load ptr, ptr %5, align 8, !tbaa !406
  %7 = icmp eq ptr %6, null
  br i1 %7, label %8, label %9

8:                                                ; preds = %1
  store i32 0, ptr %2, align 4
  br label %14

9:                                                ; preds = %1
  %10 = getelementptr inbounds nuw %class.vector.27, ptr %4, i32 0, i32 0
  %11 = load ptr, ptr %10, align 8, !tbaa !406
  %12 = getelementptr inbounds i32, ptr %11, i64 -1
  %13 = load i32, ptr %12, align 4, !tbaa !25
  store i32 %13, ptr %2, align 4
  br label %14

14:                                               ; preds = %9, %8
  %15 = load i32, ptr %2, align 4
  ret i32 %15
}

; Function Attrs: mustprogress nounwind uwtable
define linkonce_odr hidden noundef nonnull align 8 dereferenceable(8) ptr @_ZNK6vectorIP11decl_pluginLb0EjE3getEjRKS1_(ptr noundef nonnull align 8 dereferenceable(8) %0, i32 noundef %1, ptr noundef nonnull align 8 dereferenceable(8) %2) #4 comdat align 2 {
  %4 = alloca ptr, align 8
  %5 = alloca ptr, align 8
  %6 = alloca i32, align 4
  %7 = alloca ptr, align 8
  store ptr %0, ptr %5, align 8, !tbaa !396
  store i32 %1, ptr %6, align 4, !tbaa !25
  store ptr %2, ptr %7, align 8, !tbaa !402
  %8 = load ptr, ptr %5, align 8
  %9 = load i32, ptr %6, align 4, !tbaa !25
  %10 = call noundef i32 @_ZNK6vectorIP11decl_pluginLb0EjE4sizeEv(ptr noundef nonnull align 8 dereferenceable(8) %8)
  %11 = icmp uge i32 %9, %10
  br i1 %11, label %12, label %14

12:                                               ; preds = %3
  %13 = load ptr, ptr %7, align 8, !tbaa !402
  store ptr %13, ptr %4, align 8
  br label %20

14:                                               ; preds = %3
  %15 = getelementptr inbounds nuw %class.vector.27, ptr %8, i32 0, i32 0
  %16 = load ptr, ptr %15, align 8, !tbaa !406
  %17 = load i32, ptr %6, align 4, !tbaa !25
  %18 = zext i32 %17 to i64
  %19 = getelementptr inbounds nuw ptr, ptr %16, i64 %18
  store ptr %19, ptr %4, align 8
  br label %20

20:                                               ; preds = %14, %12
  %21 = load ptr, ptr %4, align 8
  ret ptr %21
}

; Function Attrs: mustprogress uwtable
define hidden noundef ptr @_ZNK11ast_manager10get_pluginEi(ptr noundef nonnull align 8 dereferenceable(976) %0, i32 noundef %1) #6 align 2 {
  %3 = alloca ptr, align 8
  %4 = alloca i32, align 4
  %5 = alloca ptr, align 8
  store ptr %0, ptr %3, align 8, !tbaa !21
  store i32 %1, ptr %4, align 4, !tbaa !25
  %6 = load ptr, ptr %3, align 8
  %7 = getelementptr inbounds nuw %class.ast_manager, ptr %6, i32 0, i32 6
  %8 = load i32, ptr %4, align 4, !tbaa !25
  call void @llvm.lifetime.start.p0(i64 8, ptr %5) #3
  store ptr null, ptr %5, align 8, !tbaa !27
  %9 = call noundef nonnull align 8 dereferenceable(8) ptr @_ZNK6vectorIP11decl_pluginLb0EjE3getEjRKS1_(ptr noundef nonnull align 8 dereferenceable(8) %7, i32 noundef %8, ptr noundef nonnull align 8 dereferenceable(8) %5)
  %10 = load ptr, ptr %9, align 8, !tbaa !27
  call void @llvm.lifetime.end.p0(i64 8, ptr %5) #3
  ret ptr %10
}

; Function Attrs: mustprogress uwtable
define hidden noundef ptr @_ZN11ast_manager12mk_func_declEiijPK9parameterjPKP4exprP4sort(ptr noundef nonnull align 8 dereferenceable(976) %0, i32 noundef %1, i32 noundef %2, i32 noundef %3, ptr noundef %4, i32 noundef %5, ptr noundef %6, ptr noundef %7) #6 align 2 {
  %9 = alloca ptr, align 8
  %10 = alloca ptr, align 8
  %11 = alloca i32, align 4
  %12 = alloca i32, align 4
  %13 = alloca i32, align 4
  %14 = alloca ptr, align 8
  %15 = alloca i32, align 4
  %16 = alloca ptr, align 8
  %17 = alloca ptr, align 8
  %18 = alloca ptr, align 8
  %19 = alloca i32, align 4
  store ptr %0, ptr %10, align 8, !tbaa !21
  store i32 %1, ptr %11, align 4, !tbaa !25
  store i32 %2, ptr %12, align 4, !tbaa !25
  store i32 %3, ptr %13, align 4, !tbaa !25
  store ptr %4, ptr %14, align 8, !tbaa !3
  store i32 %5, ptr %15, align 4, !tbaa !25
  store ptr %6, ptr %16, align 8, !tbaa !125
  store ptr %7, ptr %17, align 8, !tbaa !114
  %20 = load ptr, ptr %10, align 8
  call void @llvm.lifetime.start.p0(i64 8, ptr %18) #3
  %21 = load i32, ptr %11, align 4, !tbaa !25
  %22 = call noundef ptr @_ZNK11ast_manager10get_pluginEi(ptr noundef nonnull align 8 dereferenceable(976) %20, i32 noundef %21)
  store ptr %22, ptr %18, align 8, !tbaa !27
  %23 = load ptr, ptr %18, align 8, !tbaa !27
  %24 = icmp ne ptr %23, null
  br i1 %24, label %25, label %37

25:                                               ; preds = %8
  %26 = load ptr, ptr %18, align 8, !tbaa !27
  %27 = load i32, ptr %12, align 4, !tbaa !25
  %28 = load i32, ptr %13, align 4, !tbaa !25
  %29 = load ptr, ptr %14, align 8, !tbaa !3
  %30 = load i32, ptr %15, align 4, !tbaa !25
  %31 = load ptr, ptr %16, align 8, !tbaa !125
  %32 = load ptr, ptr %17, align 8, !tbaa !114
  %33 = load ptr, ptr %26, align 8, !tbaa !29
  %34 = getelementptr inbounds ptr, ptr %33, i64 8
  %35 = load ptr, ptr %34, align 8
  %36 = call noundef ptr %35(ptr noundef nonnull align 8 dereferenceable(20) %26, i32 noundef %27, i32 noundef %28, ptr noundef %29, i32 noundef %30, ptr noundef %31, ptr noundef %32)
  store ptr %36, ptr %9, align 8
  store i32 1, ptr %19, align 4
  br label %38

37:                                               ; preds = %8
  store ptr null, ptr %9, align 8
  store i32 1, ptr %19, align 4
  br label %38

38:                                               ; preds = %37, %25
  call void @llvm.lifetime.end.p0(i64 8, ptr %18) #3
  %39 = load ptr, ptr %9, align 8
  ret ptr %39
}

; Function Attrs: mustprogress uwtable
define hidden noundef ptr @_ZN11ast_manager6mk_appEiijPK9parameterjPKP4exprP4sort(ptr noundef nonnull align 8 dereferenceable(976) %0, i32 noundef %1, i32 noundef %2, i32 noundef %3, ptr noundef %4, i32 noundef %5, ptr noundef %6, ptr noundef %7) #6 align 2 {
  %9 = alloca ptr, align 8
  %10 = alloca ptr, align 8
  %11 = alloca i32, align 4
  %12 = alloca i32, align 4
  %13 = alloca i32, align 4
  %14 = alloca ptr, align 8
  %15 = alloca i32, align 4
  %16 = alloca ptr, align 8
  %17 = alloca ptr, align 8
  %18 = alloca ptr, align 8
  %19 = alloca i32, align 4
  store ptr %0, ptr %10, align 8, !tbaa !21
  store i32 %1, ptr %11, align 4, !tbaa !25
  store i32 %2, ptr %12, align 4, !tbaa !25
  store i32 %3, ptr %13, align 4, !tbaa !25
  store ptr %4, ptr %14, align 8, !tbaa !3
  store i32 %5, ptr %15, align 4, !tbaa !25
  store ptr %6, ptr %16, align 8, !tbaa !125
  store ptr %7, ptr %17, align 8, !tbaa !114
  %20 = load ptr, ptr %10, align 8
  call void @llvm.lifetime.start.p0(i64 8, ptr %18) #3
  %21 = load i32, ptr %11, align 4, !tbaa !25
  %22 = load i32, ptr %12, align 4, !tbaa !25
  %23 = load i32, ptr %13, align 4, !tbaa !25
  %24 = load ptr, ptr %14, align 8, !tbaa !3
  %25 = load i32, ptr %15, align 4, !tbaa !25
  %26 = load ptr, ptr %16, align 8, !tbaa !125
  %27 = load ptr, ptr %17, align 8, !tbaa !114
  %28 = call noundef ptr @_ZN11ast_manager12mk_func_declEiijPK9parameterjPKP4exprP4sort(ptr noundef nonnull align 8 dereferenceable(976) %20, i32 noundef %21, i32 noundef %22, i32 noundef %23, ptr noundef %24, i32 noundef %25, ptr noundef %26, ptr noundef %27)
  store ptr %28, ptr %18, align 8, !tbaa !110
  %29 = load ptr, ptr %18, align 8, !tbaa !110
  %30 = icmp ne ptr %29, null
  br i1 %30, label %31, label %36

31:                                               ; preds = %8
  %32 = load ptr, ptr %18, align 8, !tbaa !110
  %33 = load i32, ptr %15, align 4, !tbaa !25
  %34 = load ptr, ptr %16, align 8, !tbaa !125
  %35 = call noundef ptr @_ZN11ast_manager6mk_appEP9func_decljPKP4expr(ptr noundef nonnull align 8 dereferenceable(976) %20, ptr noundef %32, i32 noundef %33, ptr noundef %34)
  store ptr %35, ptr %9, align 8
  store i32 1, ptr %19, align 4
  br label %37

36:                                               ; preds = %8
  store ptr null, ptr %9, align 8
  store i32 1, ptr %19, align 4
  br label %37

37:                                               ; preds = %36, %31
  call void @llvm.lifetime.end.p0(i64 8, ptr %18) #3
  %38 = load ptr, ptr %9, align 8
  ret ptr %38
}

; Function Attrs: mustprogress uwtable
define hidden noundef ptr @_ZN11ast_manager6mk_appEiijPKP4expr(ptr noundef nonnull align 8 dereferenceable(976) %0, i32 noundef %1, i32 noundef %2, i32 noundef %3, ptr noundef %4) #6 align 2 {
  %6 = alloca ptr, align 8
  %7 = alloca i32, align 4
  %8 = alloca i32, align 4
  %9 = alloca i32, align 4
  %10 = alloca ptr, align 8
  store ptr %0, ptr %6, align 8, !tbaa !21
  store i32 %1, ptr %7, align 4, !tbaa !25
  store i32 %2, ptr %8, align 4, !tbaa !25
  store i32 %3, ptr %9, align 4, !tbaa !25
  store ptr %4, ptr %10, align 8, !tbaa !125
  %11 = load ptr, ptr %6, align 8
  %12 = load i32, ptr %7, align 4, !tbaa !25
  %13 = load i32, ptr %8, align 4, !tbaa !25
  %14 = load i32, ptr %9, align 4, !tbaa !25
  %15 = load ptr, ptr %10, align 8, !tbaa !125
  %16 = call noundef ptr @_ZN11ast_manager6mk_appEiijPK9parameterjPKP4exprP4sort(ptr noundef nonnull align 8 dereferenceable(976) %11, i32 noundef %12, i32 noundef %13, i32 noundef 0, ptr noundef null, i32 noundef %14, ptr noundef %15, ptr noundef null)
  ret ptr %16
}

; Function Attrs: mustprogress nounwind uwtable
define linkonce_odr hidden noundef zeroext i1 @_ZNK11ast_manager15proofs_disabledEv(ptr noundef nonnull align 8 dereferenceable(976) %0) #4 comdat align 2 {
  %2 = alloca ptr, align 8
  store ptr %0, ptr %2, align 8, !tbaa !21
  %3 = load ptr, ptr %2, align 8
  %4 = getelementptr inbounds nuw %class.ast_manager, ptr %3, i32 0, i32 7
  %5 = load i32, ptr %4, align 8, !tbaa !362
  %6 = icmp eq i32 %5, 0
  ret i1 %6
}

; Function Attrs: mustprogress uwtable
define hidden noundef ptr @_ZN11ast_manager8mk_proofEiijPKP4expr(ptr noundef nonnull align 8 dereferenceable(976) %0, i32 noundef %1, i32 noundef %2, i32 noundef %3, ptr noundef %4) #6 align 2 {
  %6 = alloca ptr, align 8
  %7 = alloca ptr, align 8
  %8 = alloca i32, align 4
  %9 = alloca i32, align 4
  %10 = alloca i32, align 4
  %11 = alloca ptr, align 8
  store ptr %0, ptr %7, align 8, !tbaa !21
  store i32 %1, ptr %8, align 4, !tbaa !25
  store i32 %2, ptr %9, align 4, !tbaa !25
  store i32 %3, ptr %10, align 4, !tbaa !25
  store ptr %4, ptr %11, align 8, !tbaa !125
  %12 = load ptr, ptr %7, align 8
  %13 = call noundef zeroext i1 @_ZNK11ast_manager15proofs_disabledEv(ptr noundef nonnull align 8 dereferenceable(976) %12)
  br i1 %13, label %14, label %15

14:                                               ; preds = %5
  store ptr null, ptr %6, align 8
  br label %21

15:                                               ; preds = %5
  %16 = load i32, ptr %8, align 4, !tbaa !25
  %17 = load i32, ptr %9, align 4, !tbaa !25
  %18 = load i32, ptr %10, align 4, !tbaa !25
  %19 = load ptr, ptr %11, align 8, !tbaa !125
  %20 = call noundef ptr @_ZN11ast_manager6mk_appEiijPKP4expr(ptr noundef nonnull align 8 dereferenceable(976) %12, i32 noundef %16, i32 noundef %17, i32 noundef %18, ptr noundef %19)
  store ptr %20, ptr %6, align 8
  br label %21

21:                                               ; preds = %15, %14
  %22 = load ptr, ptr %6, align 8
  ret ptr %22
}

; Function Attrs: mustprogress uwtable
define hidden noundef ptr @_ZN11ast_manager8mk_proofEiiP4expr(ptr noundef nonnull align 8 dereferenceable(976) %0, i32 noundef %1, i32 noundef %2, ptr noundef %3) #6 align 2 {
  %5 = alloca ptr, align 8
  %6 = alloca i32, align 4
  %7 = alloca i32, align 4
  %8 = alloca ptr, align 8
  store ptr %0, ptr %5, align 8, !tbaa !21
  store i32 %1, ptr %6, align 4, !tbaa !25
  store i32 %2, ptr %7, align 4, !tbaa !25
  store ptr %3, ptr %8, align 8, !tbaa !132
  %9 = load ptr, ptr %5, align 8
  %10 = load i32, ptr %6, align 4, !tbaa !25
  %11 = load i32, ptr %7, align 4, !tbaa !25
  %12 = call noundef ptr @_ZN11ast_manager8mk_proofEiijPKP4expr(ptr noundef nonnull align 8 dereferenceable(976) %9, i32 noundef %10, i32 noundef %11, i32 noundef 1, ptr noundef %8)
  ret ptr %12
}