; Function Attrs: mustprogress uwtable
define hidden noundef ptr @_ZN11ast_manager8mk_proofEiiP4expr(ptr noundef nonnull align 8 dereferenceable(976) %0, i32 noundef %1, i32 noundef %2, ptr noundef %3) local_unnamed_addr #7 align 2 {
  %5 = alloca ptr, align 8
  store ptr %3, ptr %5, align 8, !tbaa !124
  %6 = getelementptr inbounds nuw i8, ptr %0, i64 712
  %7 = load i32, ptr %6, align 8, !tbaa !324
  %8 = icmp eq i32 %7, 0
  br i1 %8, label %_ZN11ast_manager8mk_proofEiijPKP4expr.exit, label %9

9:                                                ; preds = %4
  %10 = getelementptr inbounds nuw i8, ptr %0, i64 704
  %11 = load ptr, ptr %10, align 8, !tbaa !33
  %12 = icmp eq ptr %11, null
  br i1 %12, label %_ZN11ast_manager8mk_proofEiijPKP4expr.exit, label %_ZNK6vectorIP11decl_pluginLb0EjE3getEjRKS1_.exit.i.i.i.i

_ZNK6vectorIP11decl_pluginLb0EjE3getEjRKS1_.exit.i.i.i.i: ; preds = %9
  %13 = getelementptr inbounds i8, ptr %11, i64 -4
  %14 = load i32, ptr %13, align 4, !tbaa !24
  %.not.i.i.i.i.i = icmp ult i32 %1, %14
  br i1 %.not.i.i.i.i.i, label %_ZNK11ast_manager10get_pluginEi.exit.i.i.i, label %_ZN11ast_manager8mk_proofEiijPKP4expr.exit

_ZNK11ast_manager10get_pluginEi.exit.i.i.i:       ; preds = %_ZNK6vectorIP11decl_pluginLb0EjE3getEjRKS1_.exit.i.i.i.i
  %15 = zext i32 %1 to i64
  %16 = getelementptr inbounds nuw ptr, ptr %11, i64 %15
  %.then.val.i.i.i.i = load ptr, ptr %16, align 8, !tbaa !37
  %.not.i5.i.i = icmp eq ptr %.then.val.i.i.i.i, null
  br i1 %.not.i5.i.i, label %_ZN11ast_manager8mk_proofEiijPKP4expr.exit, label %_ZN11ast_manager12mk_func_declEiijPK9parameterjPKP4exprP4sort.exit.i.i

_ZN11ast_manager12mk_func_declEiijPK9parameterjPKP4exprP4sort.exit.i.i: ; preds = %_ZNK11ast_manager10get_pluginEi.exit.i.i.i
  %17 = load ptr, ptr %.then.val.i.i.i.i, align 8, !tbaa !39
  %18 = getelementptr inbounds nuw i8, ptr %17, i64 64
  %19 = load ptr, ptr %18, align 8
  %20 = call noundef ptr %19(ptr noundef nonnull align 8 dereferenceable(20) %.then.val.i.i.i.i, i32 noundef %2, i32 noundef 0, ptr noundef null, i32 noundef 1, ptr noundef nonnull %5, ptr noundef null)
  %.not.i.i.i = icmp eq ptr %20, null
  br i1 %.not.i.i.i, label %_ZN11ast_manager8mk_proofEiijPKP4expr.exit, label %21

21:                                               ; preds = %_ZN11ast_manager12mk_func_declEiijPK9parameterjPKP4exprP4sort.exit.i.i
  %22 = call noundef ptr @_ZN11ast_manager6mk_appEP9func_decljPKP4expr(ptr noundef nonnull align 8 dereferenceable(976) %0, ptr noundef nonnull %20, i32 noundef 1, ptr noundef nonnull %5)
  br label %_ZN11ast_manager8mk_proofEiijPKP4expr.exit

_ZN11ast_manager8mk_proofEiijPKP4expr.exit:       ; preds = %4, %9, %_ZNK6vectorIP11decl_pluginLb0EjE3getEjRKS1_.exit.i.i.i.i, %_ZNK11ast_manager10get_pluginEi.exit.i.i.i, %_ZN11ast_manager12mk_func_declEiijPK9parameterjPKP4exprP4sort.exit.i.i, %21
  %.0.i = phi ptr [ null, %4 ], [ %22, %21 ], [ null, %_ZN11ast_manager12mk_func_declEiijPK9parameterjPKP4exprP4sort.exit.i.i ], [ null, %_ZNK11ast_manager10get_pluginEi.exit.i.i.i ], [ null, %_ZNK6vectorIP11decl_pluginLb0EjE3getEjRKS1_.exit.i.i.i.i ], [ null, %9 ]
  ret ptr %.0.i
}